target datalayout = "e-m:e-p270:32:32-p271:32:32-p272:64:64-i64:64-i128:128-f80:128-n8:16:32:64-S128"
target triple = "x86_64-pc-linux-gnu"

%"class.icu_77::IDNAInfo" = type <{ i32, i32, i8, i8, i8, i8 }>

; Function Attrs: mustprogress uwtable
define void @_ZNK6icu_775UTS4614checkLabelBiDiEPKDsiRNS_8IDNAInfoE(ptr noundef nonnull align 8 dereferenceable(20) %0, ptr noundef %1, i32 noundef %2, ptr noundef nonnull align 4 dereferenceable(11) %3) #1 align 2 {
  %5 = alloca ptr, align 8
  %6 = alloca ptr, align 8
  %7 = alloca i32, align 4
  %8 = alloca ptr, align 8
  %9 = alloca i32, align 4
  %10 = alloca i32, align 4
  %11 = alloca i32, align 4
  %12 = alloca i32, align 4
  %13 = alloca i32, align 4
  %14 = alloca i32, align 4
  %15 = alloca i32, align 4
  store ptr %0, ptr %5, align 8, !tbaa !34
  store ptr %1, ptr %6, align 8, !tbaa !42
  store i32 %2, ptr %7, align 4, !tbaa !14
  store ptr %3, ptr %8, align 8, !tbaa !27
  call void @llvm.lifetime.start.p0(i64 4, ptr %9) #13
  call void @llvm.lifetime.start.p0(i64 4, ptr %10) #13
  store i32 0, ptr %10, align 4, !tbaa !14
  br label %16

16:                                               ; preds = %4
  %17 = load ptr, ptr %6, align 8, !tbaa !42
  %18 = load i32, ptr %10, align 4, !tbaa !14
  %19 = add nsw i32 %18, 1
  store i32 %19, ptr %10, align 4, !tbaa !14
  %20 = sext i32 %18 to i64
  %21 = getelementptr inbounds i16, ptr %17, i64 %20
  %22 = load i16, ptr %21, align 2, !tbaa !47
  %23 = zext i16 %22 to i32
  store i32 %23, ptr %9, align 4, !tbaa !14
  %24 = load i32, ptr %9, align 4, !tbaa !14
  %25 = and i32 %24, -1024
  %26 = icmp eq i32 %25, 55296
  br i1 %26, label %27, label %39

27:                                               ; preds = %16
  %28 = load i32, ptr %9, align 4, !tbaa !14
  %29 = shl i32 %28, 10
  %30 = load ptr, ptr %6, align 8, !tbaa !42
  %31 = load i32, ptr %10, align 4, !tbaa !14
  %32 = add nsw i32 %31, 1
  store i32 %32, ptr %10, align 4, !tbaa !14
  %33 = sext i32 %31 to i64
  %34 = getelementptr inbounds i16, ptr %30, i64 %33
  %35 = load i16, ptr %34, align 2, !tbaa !47
  %36 = zext i16 %35 to i32
  %37 = add nsw i32 %29, %36
  %38 = sub nsw i32 %37, 56613888
  store i32 %38, ptr %9, align 4, !tbaa !14
  br label %39

39:                                               ; preds = %27, %16
  br label %40

40:                                               ; preds = %39
  br label %41

41:                                               ; preds = %40
  call void @llvm.lifetime.start.p0(i64 4, ptr %11) #13
  %42 = load i32, ptr %9, align 4, !tbaa !14
  %43 = call i32 @u_charDirection_77(i32 noundef %42)
  %44 = shl i32 1, %43
  store i32 %44, ptr %11, align 4, !tbaa !14
  %45 = load i32, ptr %11, align 4, !tbaa !14
  %46 = and i32 %45, -8196
  %47 = icmp ne i32 %46, 0
  br i1 %47, label %48, label %51

48:                                               ; preds = %41
  %49 = load ptr, ptr %8, align 8, !tbaa !27
  %50 = getelementptr inbounds nuw %"class.icu_77::IDNAInfo", ptr %49, i32 0, i32 4
  store i8 0, ptr %50, align 2, !tbaa !52
  br label %51

51:                                               ; preds = %48, %41
  call void @llvm.lifetime.start.p0(i64 4, ptr %12) #13
  br label %52

52:                                               ; preds = %95, %51
  %53 = load i32, ptr %10, align 4, !tbaa !14
  %54 = load i32, ptr %7, align 4, !tbaa !14
  %55 = icmp sge i32 %53, %54
  br i1 %55, label %56, label %58

56:                                               ; preds = %52
  %57 = load i32, ptr %11, align 4, !tbaa !14
  store i32 %57, ptr %12, align 4, !tbaa !14
  br label %96

58:                                               ; preds = %52
  br label %59

59:                                               ; preds = %58
  %60 = load ptr, ptr %6, align 8, !tbaa !42
  %61 = load i32, ptr %7, align 4, !tbaa !14
  %62 = add nsw i32 %61, -1
  store i32 %62, ptr %7, align 4, !tbaa !14
  %63 = sext i32 %62 to i64
  %64 = getelementptr inbounds i16, ptr %60, i64 %63
  %65 = load i16, ptr %64, align 2, !tbaa !47
  %66 = zext i16 %65 to i32
  store i32 %66, ptr %9, align 4, !tbaa !14
  %67 = load i32, ptr %9, align 4, !tbaa !14
  %68 = and i32 %67, -1024
  %69 = icmp eq i32 %68, 56320
  br i1 %69, label %70, label %82

70:                                               ; preds = %59
  %71 = load ptr, ptr %6, align 8, !tbaa !42
  %72 = load i32, ptr %7, align 4, !tbaa !14
  %73 = add nsw i32 %72, -1
  store i32 %73, ptr %7, align 4, !tbaa !14
  %74 = sext i32 %73 to i64
  %75 = getelementptr inbounds i16, ptr %71, i64 %74
  %76 = load i16, ptr %75, align 2, !tbaa !47
  %77 = zext i16 %76 to i32
  %78 = shl i32 %77, 10
  %79 = load i32, ptr %9, align 4, !tbaa !14
  %80 = add nsw i32 %78, %79
  %81 = sub nsw i32 %80, 56613888
  store i32 %81, ptr %9, align 4, !tbaa !14
  br label %82

82:                                               ; preds = %70, %59
  br label %83

83:                                               ; preds = %82
  br label %84

84:                                               ; preds = %83
  call void @llvm.lifetime.start.p0(i64 4, ptr %13) #13
  %85 = load i32, ptr %9, align 4, !tbaa !14
  %86 = call i32 @u_charDirection_77(i32 noundef %85)
  store i32 %86, ptr %13, align 4, !tbaa !68
  %87 = load i32, ptr %13, align 4, !tbaa !68
  %88 = icmp ne i32 %87, 17
  br i1 %88, label %89, label %92

89:                                               ; preds = %84
  %90 = load i32, ptr %13, align 4, !tbaa !68
  %91 = shl i32 1, %90
  store i32 %91, ptr %12, align 4, !tbaa !14
  store i32 4, ptr %14, align 4
  br label %93

92:                                               ; preds = %84
  store i32 0, ptr %14, align 4
  br label %93

93:                                               ; preds = %92, %89
  call void @llvm.lifetime.end.p0(i64 4, ptr %13) #13
  %94 = load i32, ptr %14, align 4
  switch i32 %94, label %186 [
    i32 0, label %95
    i32 4, label %96
  ]

95:                                               ; preds = %93
  br label %52, !llvm.loop !70

96:                                               ; preds = %93, %56
  %97 = load i32, ptr %11, align 4, !tbaa !14
  %98 = and i32 %97, 1
  %99 = icmp ne i32 %98, 0
  br i1 %99, label %100, label %104

100:                                              ; preds = %96
  %101 = load i32, ptr %12, align 4, !tbaa !14
  %102 = and i32 %101, -6
  %103 = icmp ne i32 %102, 0
  br i1 %103, label %108, label %111

104:                                              ; preds = %96
  %105 = load i32, ptr %12, align 4, !tbaa !14
  %106 = and i32 %105, -8231
  %107 = icmp ne i32 %106, 0
  br i1 %107, label %108, label %111

108:                                              ; preds = %104, %100
  %109 = load ptr, ptr %8, align 8, !tbaa !27
  %110 = getelementptr inbounds nuw %"class.icu_77::IDNAInfo", ptr %109, i32 0, i32 4
  store i8 0, ptr %110, align 2, !tbaa !52
  br label %111

111:                                              ; preds = %108, %104, %100
  call void @llvm.lifetime.start.p0(i64 4, ptr %15) #13
  %112 = load i32, ptr %11, align 4, !tbaa !14
  %113 = load i32, ptr %12, align 4, !tbaa !14
  %114 = or i32 %112, %113
  store i32 %114, ptr %15, align 4, !tbaa !14
  br label %115

115:                                              ; preds = %145, %111
  %116 = load i32, ptr %10, align 4, !tbaa !14
  %117 = load i32, ptr %7, align 4, !tbaa !14
  %118 = icmp slt i32 %116, %117
  br i1 %118, label %119, label %151

119:                                              ; preds = %115
  br label %120

120:                                              ; preds = %119
  %121 = load ptr, ptr %6, align 8, !tbaa !42
  %122 = load i32, ptr %10, align 4, !tbaa !14
  %123 = add nsw i32 %122, 1
  store i32 %123, ptr %10, align 4, !tbaa !14
  %124 = sext i32 %122 to i64
  %125 = getelementptr inbounds i16, ptr %121, i64 %124
  %126 = load i16, ptr %125, align 2, !tbaa !47
  %127 = zext i16 %126 to i32
  store i32 %127, ptr %9, align 4, !tbaa !14
  %128 = load i32, ptr %9, align 4, !tbaa !14
  %129 = and i32 %128, -1024
  %130 = icmp eq i32 %129, 55296
  br i1 %130, label %131, label %143

131:                                              ; preds = %120
  %132 = load i32, ptr %9, align 4, !tbaa !14
  %133 = shl i32 %132, 10
  %134 = load ptr, ptr %6, align 8, !tbaa !42
  %135 = load i32, ptr %10, align 4, !tbaa !14
  %136 = add nsw i32 %135, 1
  store i32 %136, ptr %10, align 4, !tbaa !14
  %137 = sext i32 %135 to i64
  %138 = getelementptr inbounds i16, ptr %134, i64 %137
  %139 = load i16, ptr %138, align 2, !tbaa !47
  %140 = zext i16 %139 to i32
  %141 = add nsw i32 %133, %140
  %142 = sub nsw i32 %141, 56613888
  store i32 %142, ptr %9, align 4, !tbaa !14
  br label %143

143:                                              ; preds = %131, %120
  br label %144

144:                                              ; preds = %143
  br label %145

145:                                              ; preds = %144
  %146 = load i32, ptr %9, align 4, !tbaa !14
  %147 = call i32 @u_charDirection_77(i32 noundef %146)
  %148 = shl i32 1, %147
  %149 = load i32, ptr %15, align 4, !tbaa !14
  %150 = or i32 %149, %148
  store i32 %150, ptr %15, align 4, !tbaa !14
  br label %115, !llvm.loop !71

151:                                              ; preds = %115
  %152 = load i32, ptr %11, align 4, !tbaa !14
  %153 = and i32 %152, 1
  %154 = icmp ne i32 %153, 0
  br i1 %154, label %155, label %163

155:                                              ; preds = %151
  %156 = load i32, ptr %15, align 4, !tbaa !14
  %157 = and i32 %156, -394334
  %158 = icmp ne i32 %157, 0
  br i1 %158, label %159, label %162

159:                                              ; preds = %155
  %160 = load ptr, ptr %8, align 8, !tbaa !27
  %161 = getelementptr inbounds nuw %"class.icu_77::IDNAInfo", ptr %160, i32 0, i32 4
  store i8 0, ptr %161, align 2, !tbaa !52
  br label %162

162:                                              ; preds = %159, %155
  br label %178

163:                                              ; preds = %151
  %164 = load i32, ptr %15, align 4, !tbaa !14
  %165 = and i32 %164, -402559
  %166 = icmp ne i32 %165, 0
  br i1 %166, label %167, label %170

167:                                              ; preds = %163
  %168 = load ptr, ptr %8, align 8, !tbaa !27
  %169 = getelementptr inbounds nuw %"class.icu_77::IDNAInfo", ptr %168, i32 0, i32 4
  store i8 0, ptr %169, align 2, !tbaa !52
  br label %170

170:                                              ; preds = %167, %163
  %171 = load i32, ptr %15, align 4, !tbaa !14
  %172 = and i32 %171, 36
  %173 = icmp eq i32 %172, 36
  br i1 %173, label %174, label %177

174:                                              ; preds = %170
  %175 = load ptr, ptr %8, align 8, !tbaa !27
  %176 = getelementptr inbounds nuw %"class.icu_77::IDNAInfo", ptr %175, i32 0, i32 4
  store i8 0, ptr %176, align 2, !tbaa !52
  br label %177

177:                                              ; preds = %174, %170
  br label %178

178:                                              ; preds = %177, %162
  %179 = load i32, ptr %15, align 4, !tbaa !14
  %180 = and i32 %179, 8226
  %181 = icmp ne i32 %180, 0
  br i1 %181, label %182, label %185

182:                                              ; preds = %178
  %183 = load ptr, ptr %8, align 8, !tbaa !27
  %184 = getelementptr inbounds nuw %"class.icu_77::IDNAInfo", ptr %183, i32 0, i32 3
  store i8 1, ptr %184, align 1, !tbaa !51
  br label %185

185:                                              ; preds = %182, %178
  call void @llvm.lifetime.end.p0(i64 4, ptr %15) #13
  call void @llvm.lifetime.end.p0(i64 4, ptr %12) #13
  call void @llvm.lifetime.end.p0(i64 4, ptr %11) #13
  call void @llvm.lifetime.end.p0(i64 4, ptr %10) #13
  call void @llvm.lifetime.end.p0(i64 4, ptr %9) #13
  ret void

186:                                              ; preds = %93
  unreachable
}