; Function Attrs: mustprogress uwtable
define void @_ZNK6icu_775UTS4614checkLabelBiDiEPKDsiRNS_8IDNAInfoE(ptr nonnull readnone align 8 captures(none) %0, ptr noundef readonly captures(none) %1, i32 noundef %2, ptr noundef nonnull writeonly align 4 captures(none) dereferenceable(11) %3) local_unnamed_addr #1 align 2 {
  %5 = load i16, ptr %1, align 2, !tbaa !27
  %6 = zext i16 %5 to i32
  %7 = and i32 %6, 64512
  %8 = icmp eq i32 %7, 55296
  br i1 %8, label %9, label %16

9:                                                ; preds = %4
  %10 = shl nuw nsw i32 %6, 10
  %11 = getelementptr inbounds nuw i8, ptr %1, i64 2
  %12 = load i16, ptr %11, align 2, !tbaa !27
  %13 = zext i16 %12 to i32
  %14 = add nsw i32 %10, -56613888
  %15 = add nuw nsw i32 %14, %13
  br label %16

16:                                               ; preds = %9, %4
  %.054 = phi i32 [ 2, %9 ], [ 1, %4 ]
  %.051 = phi i32 [ %15, %9 ], [ %6, %4 ]
  %17 = tail call i32 @u_charDirection_77(i32 noundef %.051)
  %18 = shl nuw i32 1, %17
  %19 = and i32 %18, -8196
  %.not = icmp eq i32 %19, 0
  br i1 %.not, label %.preheader, label %20

20:                                               ; preds = %16
  %21 = getelementptr inbounds nuw i8, ptr %3, i64 10
  store i8 0, ptr %21, align 2, !tbaa !24
  br label %.preheader

.preheader:                                       ; preds = %20, %16
  br label %22

22:                                               ; preds = %.preheader, %40
  %.047 = phi i32 [ %.2, %40 ], [ %2, %.preheader ]
  %.not58 = icmp slt i32 %.054, %.047
  br i1 %.not58, label %23, label %.split.loop.exit66

23:                                               ; preds = %22
  %24 = add nsw i32 %.047, -1
  %25 = zext nneg i32 %24 to i64
  %26 = getelementptr inbounds nuw i16, ptr %1, i64 %25
  %27 = load i16, ptr %26, align 2, !tbaa !27
  %28 = zext i16 %27 to i32
  %29 = and i32 %28, 64512
  %30 = icmp eq i32 %29, 56320
  br i1 %30, label %31, label %40

31:                                               ; preds = %23
  %32 = add nsw i32 %.047, -2
  %33 = zext nneg i32 %32 to i64
  %34 = getelementptr inbounds nuw i16, ptr %1, i64 %33
  %35 = load i16, ptr %34, align 2, !tbaa !27
  %36 = zext i16 %35 to i32
  %37 = shl nuw nsw i32 %36, 10
  %38 = add nuw nsw i32 %28, -56613888
  %39 = add nsw i32 %38, %37
  br label %40

40:                                               ; preds = %31, %23
  %.152 = phi i32 [ %39, %31 ], [ %28, %23 ]
  %.2 = phi i32 [ %32, %31 ], [ %24, %23 ]
  %41 = tail call i32 @u_charDirection_77(i32 noundef %.152)
  %.not59 = icmp eq i32 %41, 17
  br i1 %.not59, label %22, label %.split.loop.exit

.split.loop.exit:                                 ; preds = %40
  %42 = shl nuw i32 1, %41
  br label %.split.loop.exit66

.split.loop.exit66:                               ; preds = %22, %.split.loop.exit
  %.149 = phi i32 [ %42, %.split.loop.exit ], [ %18, %22 ]
  %.1 = phi i32 [ %.2, %.split.loop.exit ], [ %.047, %22 ]
  %.not60.not = icmp eq i32 %17, 0
  br i1 %.not60.not, label %43, label %45

43:                                               ; preds = %.split.loop.exit66
  %44 = and i32 %.149, -6
  %.not62 = icmp eq i32 %44, 0
  br i1 %.not62, label %49, label %47

45:                                               ; preds = %.split.loop.exit66
  %46 = and i32 %.149, -8231
  %.not61 = icmp eq i32 %46, 0
  br i1 %.not61, label %49, label %47

47:                                               ; preds = %45, %43
  %48 = getelementptr inbounds nuw i8, ptr %3, i64 10
  store i8 0, ptr %48, align 2, !tbaa !24
  br label %49

49:                                               ; preds = %47, %45, %43
  %50 = or i32 %.149, %18
  %51 = icmp slt i32 %.054, %.1
  br i1 %51, label %.lr.ph, label %._crit_edge

.lr.ph:                                           ; preds = %49, %68
  %.070 = phi i32 [ %71, %68 ], [ %50, %49 ]
  %.15569 = phi i32 [ %.256, %68 ], [ %.054, %49 ]
  %52 = add nsw i32 %.15569, 1
  %53 = sext i32 %.15569 to i64
  %54 = getelementptr inbounds i16, ptr %1, i64 %53
  %55 = load i16, ptr %54, align 2, !tbaa !27
  %56 = zext i16 %55 to i32
  %57 = and i32 %56, 64512
  %58 = icmp eq i32 %57, 55296
  br i1 %58, label %59, label %68

59:                                               ; preds = %.lr.ph
  %60 = shl nuw nsw i32 %56, 10
  %61 = add nsw i32 %.15569, 2
  %62 = sext i32 %52 to i64
  %63 = getelementptr inbounds i16, ptr %1, i64 %62
  %64 = load i16, ptr %63, align 2, !tbaa !27
  %65 = zext i16 %64 to i32
  %66 = add nsw i32 %60, -56613888
  %67 = add nuw nsw i32 %66, %65
  br label %68

68:                                               ; preds = %59, %.lr.ph
  %.256 = phi i32 [ %61, %59 ], [ %52, %.lr.ph ]
  %.253 = phi i32 [ %67, %59 ], [ %56, %.lr.ph ]
  %69 = tail call i32 @u_charDirection_77(i32 noundef %.253)
  %70 = shl nuw i32 1, %69
  %71 = or i32 %70, %.070
  %72 = icmp slt i32 %.256, %.1
  br i1 %72, label %.lr.ph, label %._crit_edge, !llvm.loop !43

._crit_edge:                                      ; preds = %68, %49
  %.0.lcssa = phi i32 [ %50, %49 ], [ %71, %68 ]
  br i1 %.not60.not, label %73, label %75

73:                                               ; preds = %._crit_edge
  %74 = and i32 %.0.lcssa, -394334
  %.not64 = icmp eq i32 %74, 0
  br i1 %.not64, label %83, label %.sink.split

75:                                               ; preds = %._crit_edge
  %76 = and i32 %.0.lcssa, -402559
  %.not63 = icmp eq i32 %76, 0
  br i1 %.not63, label %79, label %77

77:                                               ; preds = %75
  %78 = getelementptr inbounds nuw i8, ptr %3, i64 10
  store i8 0, ptr %78, align 2, !tbaa !24
  br label %79

79:                                               ; preds = %77, %75
  %80 = and i32 %.0.lcssa, 36
  %81 = icmp eq i32 %80, 36
  br i1 %81, label %.sink.split, label %83

.sink.split:                                      ; preds = %79, %73
  %82 = getelementptr inbounds nuw i8, ptr %3, i64 10
  store i8 0, ptr %82, align 2, !tbaa !24
  br label %83

83:                                               ; preds = %.sink.split, %79, %73
  %84 = and i32 %.0.lcssa, 8226
  %.not65 = icmp eq i32 %84, 0
  br i1 %.not65, label %87, label %85

85:                                               ; preds = %83
  %86 = getelementptr inbounds nuw i8, ptr %3, i64 9
  store i8 1, ptr %86, align 1, !tbaa !32
  br label %87

87:                                               ; preds = %85, %83
  ret void
}